target datalayout = "e-m:e-p270:32:32-p271:32:32-p272:64:64-i64:64-i128:128-f80:128-n8:16:32:64-S128"
target triple = "x86_64-pc-linux-gnu"

%struct._GdkRGBA = type { double, double, double, double }
%struct.darktable_t = type { %struct.dt_codepath_t, i32, i32, ptr, ptr, ptr, ptr, ptr, ptr, ptr, ptr, ptr, ptr, ptr, ptr, ptr, ptr, ptr, ptr, ptr, ptr, ptr, ptr, ptr, ptr, ptr, ptr, ptr, ptr, ptr, [64 x %struct.dt_pthread_mutex_t], %struct.dt_pthread_mutex_t, %struct.dt_pthread_mutex_t, %struct.dt_pthread_mutex_t, %struct.dt_pthread_mutex_t, %struct.dt_pthread_mutex_t, ptr, ptr, ptr, ptr, ptr, ptr, ptr, ptr, ptr, ptr, ptr, ptr, ptr, %struct.dt_lua_state_t, ptr, double, ptr, i32, [47 x i32], i32, i32, ptr, ptr, %struct.dt_sys_resources_t, %struct.dt_backthumb_t, %struct.dt_gimp_t }
%struct.dt_codepath_t = type { i8, [3 x i8] }
%struct.dt_pthread_mutex_t = type { %union.pthread_mutex_t }
%union.pthread_mutex_t = type { %struct.__pthread_mutex_s }
%struct.__pthread_mutex_s = type { i32, i32, i32, i32, i32, i16, i16, %struct.__pthread_internal_list }
%struct.__pthread_internal_list = type { ptr, ptr }
%struct.dt_lua_state_t = type { i32 }
%struct.dt_sys_resources_t = type { i64, i64, ptr, ptr, i32 }
%struct.dt_backthumb_t = type { double, double, i32, i32, i32, i32 }
%struct.dt_gimp_t = type { i32, ptr, ptr, i32, i32 }
%struct.dt_iop_module_t = type { i32, ptr, ptr, ptr, ptr, ptr, ptr, ptr, ptr, ptr, ptr, ptr, ptr, ptr, ptr, ptr, ptr, ptr, ptr, ptr, ptr, ptr, ptr, ptr, ptr, ptr, ptr, ptr, ptr, ptr, ptr, ptr, ptr, ptr, ptr, ptr, ptr, ptr, ptr, ptr, ptr, ptr, ptr, ptr, ptr, ptr, ptr, ptr, ptr, ptr, ptr, ptr, ptr, ptr, ptr, ptr, ptr, [20 x i8], i32, i32, i32, i32, i32, i32, i32, [8 x i8], [4 x float], [4 x float], [4 x float], [4 x float], [4 x float], [4 x float], ptr, %struct.dt_dev_histogram_stats_t, [4 x i32], i32, i32, ptr, i32, i32, ptr, ptr, i32, ptr, %struct.dt_pthread_mutex_t, ptr, ptr, ptr, ptr, %struct.anon, ptr, ptr, ptr, ptr, ptr, ptr, ptr, i32, ptr, ptr, ptr, ptr, ptr, ptr, ptr, i32, ptr, i32, [128 x i8], i32, ptr, ptr, i32, [12 x i8] }
%struct.dt_dev_histogram_stats_t = type { i32, i64, i32, i32 }
%struct.anon = type { %struct.anon.0, %struct.anon.1 }
%struct.anon.0 = type { ptr, ptr }
%struct.anon.1 = type { ptr, i32 }
%struct.dt_iop_gui_blend_data_t = type { i32, i32, i32, i32, i32, i32, i32, ptr, ptr, ptr, ptr, ptr, ptr, ptr, ptr, ptr, ptr, ptr, ptr, ptr, [2 x %struct.dt_iop_gui_blendif_filter_t], ptr, ptr, ptr, ptr, ptr, ptr, ptr, ptr, ptr, ptr, ptr, ptr, i32, i32, ptr, i32, [8 x [2 x i32]], i32, i32, ptr, i32, ptr, ptr, ptr, [5 x ptr], [5 x i32], ptr, ptr, ptr, i32, ptr, ptr, i32, %struct.dt_pthread_mutex_t }
%struct.dt_iop_gui_blendif_filter_t = type { ptr, ptr, [4 x ptr], ptr, ptr, ptr }
%struct.dt_gui_gtk_t = type { ptr, %struct.dt_gui_widgets_t, %struct.dt_gui_scrollbars_t, i32, ptr, i32, [39 x %struct._GdkRGBA], i32, i32, i32, i32, i32, double, double, double, double, ptr, double, double, double, double, i32, i32, [4096 x i8], i32, i32, i32, %struct.dt_pthread_mutex_t }
%struct.dt_gui_widgets_t = type { ptr, ptr, ptr, ptr, i32, i32, i32 }
%struct.dt_gui_scrollbars_t = type { ptr, ptr, i32 }
%struct.dt_iop_gui_blendif_channel_t = type { ptr, ptr, float, i32, ptr, i32, float, [2 x i32], i32, ptr, ptr, ptr }
%struct._GdkEventKey = type { i32, ptr, i8, i32, i32, i32, i32, ptr, i16, i8, i8 }

@darktable = external global %struct.darktable_t, align 8

; Function Attrs: nounwind uwtable
define internal i32 @_blendop_blendif_key_press(ptr noundef %0, ptr noundef %1, ptr noundef %2) #0 {
  %4 = alloca i32, align 4
  %5 = alloca ptr, align 8
  %6 = alloca ptr, align 8
  %7 = alloca ptr, align 8
  %8 = alloca ptr, align 8
  %9 = alloca i32, align 4
  %10 = alloca i32, align 4
  %11 = alloca i32, align 4
  store ptr %0, ptr %5, align 8, !tbaa !11
  store ptr %1, ptr %6, align 8, !tbaa !183
  store ptr %2, ptr %7, align 8, !tbaa !6
  %12 = load ptr, ptr getelementptr inbounds nuw (%struct.darktable_t, ptr @darktable, i32 0, i32 14), align 8, !tbaa !39
  %13 = getelementptr inbounds nuw %struct.dt_gui_gtk_t, ptr %12, i32 0, i32 5
  %14 = load i32, ptr %13, align 8, !tbaa !72
  %15 = icmp ne i32 %14, 0
  br i1 %15, label %16, label %17

16:                                               ; preds = %3
  store i32 0, ptr %4, align 4
  br label %94

17:                                               ; preds = %3
  call void @llvm.lifetime.start.p0(i64 8, ptr %8) #11
  %18 = load ptr, ptr %7, align 8, !tbaa !6
  %19 = getelementptr inbounds nuw %struct.dt_iop_module_t, ptr %18, i32 0, i32 88
  %20 = load ptr, ptr %19, align 8, !tbaa !15
  store ptr %20, ptr %8, align 8, !tbaa !31
  call void @llvm.lifetime.start.p0(i64 4, ptr %9) #11
  store i32 0, ptr %9, align 4, !tbaa !80
  call void @llvm.lifetime.start.p0(i64 4, ptr %10) #11
  %21 = load ptr, ptr %8, align 8, !tbaa !31
  %22 = getelementptr inbounds nuw %struct.dt_iop_gui_blend_data_t, ptr %21, i32 0, i32 36
  %23 = load i32, ptr %22, align 8, !tbaa !79
  store i32 %23, ptr %10, align 4, !tbaa !80
  call void @llvm.lifetime.start.p0(i64 4, ptr %11) #11
  %24 = load ptr, ptr %5, align 8, !tbaa !11
  %25 = load ptr, ptr %8, align 8, !tbaa !31
  %26 = getelementptr inbounds nuw %struct.dt_iop_gui_blend_data_t, ptr %25, i32 0, i32 20
  %27 = getelementptr inbounds [2 x %struct.dt_iop_gui_blendif_filter_t], ptr %26, i64 0, i64 1
  %28 = getelementptr inbounds nuw %struct.dt_iop_gui_blendif_filter_t, ptr %27, i32 0, i32 0
  %29 = load ptr, ptr %28, align 8, !tbaa !121
  %30 = call i64 @gtk_widget_get_type() #12
  %31 = call ptr @g_type_check_instance_cast(ptr noundef %29, i64 noundef %30)
  %32 = icmp eq ptr %24, %31
  %33 = select i1 %32, i32 1, i32 0
  store i32 %33, ptr %11, align 4, !tbaa !80
  %34 = load ptr, ptr %6, align 8, !tbaa !183
  %35 = getelementptr inbounds nuw %struct._GdkEventKey, ptr %34, i32 0, i32 5
  %36 = load i32, ptr %35, align 4, !tbaa !185
  switch i32 %36, label %87 [
    i32 97, label %37
    i32 65, label %37
    i32 99, label %78
    i32 67, label %81
    i32 109, label %84
    i32 77, label %84
  ]

37:                                               ; preds = %17, %17
  %38 = load ptr, ptr %8, align 8, !tbaa !31
  %39 = getelementptr inbounds nuw %struct.dt_iop_gui_blend_data_t, ptr %38, i32 0, i32 35
  %40 = load ptr, ptr %39, align 8, !tbaa !85
  %41 = load i32, ptr %10, align 4, !tbaa !80
  %42 = sext i32 %41 to i64
  %43 = getelementptr inbounds %struct.dt_iop_gui_blendif_channel_t, ptr %40, i64 %42
  %44 = getelementptr inbounds nuw %struct.dt_iop_gui_blendif_channel_t, ptr %43, i32 0, i32 10
  %45 = load ptr, ptr %44, align 8, !tbaa !151
  %46 = icmp ne ptr %45, null
  br i1 %46, label %47, label %77

47:                                               ; preds = %37
  %48 = load ptr, ptr %8, align 8, !tbaa !31
  %49 = getelementptr inbounds nuw %struct.dt_iop_gui_blend_data_t, ptr %48, i32 0, i32 35
  %50 = load ptr, ptr %49, align 8, !tbaa !85
  %51 = load i32, ptr %10, align 4, !tbaa !80
  %52 = sext i32 %51 to i64
  %53 = getelementptr inbounds %struct.dt_iop_gui_blendif_channel_t, ptr %50, i64 %52
  %54 = getelementptr inbounds nuw %struct.dt_iop_gui_blendif_channel_t, ptr %53, i32 0, i32 10
  %55 = load ptr, ptr %54, align 8, !tbaa !151
  %56 = load ptr, ptr %5, align 8, !tbaa !11
  %57 = load ptr, ptr %7, align 8, !tbaa !6
  %58 = load ptr, ptr %8, align 8, !tbaa !31
  %59 = getelementptr inbounds nuw %struct.dt_iop_gui_blend_data_t, ptr %58, i32 0, i32 37
  %60 = load i32, ptr %10, align 4, !tbaa !80
  %61 = sext i32 %60 to i64
  %62 = getelementptr inbounds [8 x [2 x i32]], ptr %59, i64 0, i64 %61
  %63 = load i32, ptr %11, align 4, !tbaa !80
  %64 = sext i32 %63 to i64
  %65 = getelementptr inbounds [2 x i32], ptr %62, i64 0, i64 %64
  %66 = load i32, ptr %65, align 4, !tbaa !80
  %67 = add nsw i32 %66, 1
  %68 = call i32 %55(ptr noundef %56, ptr noundef %57, i32 noundef %67)
  %69 = load ptr, ptr %8, align 8, !tbaa !31
  %70 = getelementptr inbounds nuw %struct.dt_iop_gui_blend_data_t, ptr %69, i32 0, i32 37
  %71 = load i32, ptr %10, align 4, !tbaa !80
  %72 = sext i32 %71 to i64
  %73 = getelementptr inbounds [8 x [2 x i32]], ptr %70, i64 0, i64 %72
  %74 = load i32, ptr %11, align 4, !tbaa !80
  %75 = sext i32 %74 to i64
  %76 = getelementptr inbounds [2 x i32], ptr %73, i64 0, i64 %75
  store i32 %68, ptr %76, align 4, !tbaa !80
  br label %77

77:                                               ; preds = %47, %37
  store i32 1, ptr %9, align 4, !tbaa !80
  br label %87

78:                                               ; preds = %17
  %79 = load ptr, ptr %5, align 8, !tbaa !11
  %80 = load ptr, ptr %7, align 8, !tbaa !6
  call void @_blendop_blendif_channel_mask_view_toggle(ptr noundef %79, ptr noundef %80, i32 noundef 2)
  store i32 1, ptr %9, align 4, !tbaa !80
  br label %87

81:                                               ; preds = %17
  %82 = load ptr, ptr %5, align 8, !tbaa !11
  %83 = load ptr, ptr %7, align 8, !tbaa !6
  call void @_blendop_blendif_channel_mask_view_toggle(ptr noundef %82, ptr noundef %83, i32 noundef 65538)
  store i32 1, ptr %9, align 4, !tbaa !80
  br label %87

84:                                               ; preds = %17, %17
  %85 = load ptr, ptr %5, align 8, !tbaa !11
  %86 = load ptr, ptr %7, align 8, !tbaa !6
  call void @_blendop_blendif_channel_mask_view_toggle(ptr noundef %85, ptr noundef %86, i32 noundef 1)
  store i32 1, ptr %9, align 4, !tbaa !80
  br label %87

87:                                               ; preds = %84, %17, %81, %78, %77
  %88 = load i32, ptr %9, align 4, !tbaa !80
  %89 = icmp ne i32 %88, 0
  br i1 %89, label %90, label %92

90:                                               ; preds = %87
  %91 = load ptr, ptr %7, align 8, !tbaa !6
  call void @dt_iop_request_focus(ptr noundef %91)
  br label %92

92:                                               ; preds = %90, %87
  %93 = load i32, ptr %9, align 4, !tbaa !80
  store i32 %93, ptr %4, align 4
  call void @llvm.lifetime.end.p0(i64 4, ptr %11) #11
  call void @llvm.lifetime.end.p0(i64 4, ptr %10) #11
  call void @llvm.lifetime.end.p0(i64 4, ptr %9) #11
  call void @llvm.lifetime.end.p0(i64 8, ptr %8) #11
  br label %94

94:                                               ; preds = %92, %16
  %95 = load i32, ptr %4, align 4
  ret i32 %95
}