; Function Attrs: nounwind uwtable
define internal range(i32 0, 2) i32 @_blendop_blendif_key_press(ptr noundef %0, ptr noundef readonly captures(none) %1, ptr noundef %2) #0 {
  %4 = load ptr, ptr getelementptr inbounds nuw (i8, ptr @darktable, i64 104), align 8, !tbaa !33
  %5 = getelementptr inbounds nuw i8, ptr %4, i64 96
  %6 = load i32, ptr %5, align 8, !tbaa !66
  %.not = icmp eq i32 %6, 0
  br i1 %.not, label %7, label %36

7:                                                ; preds = %3
  %8 = getelementptr inbounds nuw i8, ptr %2, i64 776
  %9 = load ptr, ptr %8, align 8, !tbaa !6
  %10 = getelementptr inbounds nuw i8, ptr %9, i64 392
  %11 = load i32, ptr %10, align 8, !tbaa !72
  %12 = getelementptr inbounds nuw i8, ptr %9, i64 208
  %13 = load ptr, ptr %12, align 8, !tbaa !108
  %14 = tail call i64 @gtk_widget_get_type() #19
  %15 = tail call ptr @g_type_check_instance_cast(ptr noundef %13, i64 noundef %14) #18
  %16 = icmp eq ptr %0, %15
  %17 = getelementptr inbounds nuw i8, ptr %1, i64 28
  %18 = load i32, ptr %17, align 4, !tbaa !160
  switch i32 %18, label %36 [
    i32 97, label %19
    i32 65, label %19
    i32 99, label %32
    i32 67, label %33
    i32 109, label %34
    i32 77, label %34
  ]

19:                                               ; preds = %7, %7
  %20 = getelementptr inbounds nuw i8, ptr %9, i64 384
  %21 = load ptr, ptr %20, align 8, !tbaa !76
  %22 = sext i32 %11 to i64
  %23 = getelementptr inbounds %struct.dt_iop_gui_blendif_channel_t, ptr %21, i64 %22, i32 10
  %24 = load ptr, ptr %23, align 8, !tbaa !133
  %.not28 = icmp eq ptr %24, null
  br i1 %.not28, label %35, label %25

25:                                               ; preds = %19
  %26 = getelementptr inbounds nuw i8, ptr %9, i64 396
  %27 = zext i1 %16 to i64
  %28 = getelementptr inbounds [8 x [2 x i32]], ptr %26, i64 0, i64 %22, i64 %27
  %29 = load i32, ptr %28, align 4, !tbaa !77
  %30 = add nsw i32 %29, 1
  %31 = tail call i32 %24(ptr noundef %0, ptr noundef nonnull %2, i32 noundef %30) #18
  store i32 %31, ptr %28, align 4, !tbaa !77
  br label %35

32:                                               ; preds = %7
  tail call fastcc void @_blendop_blendif_channel_mask_view_toggle(ptr noundef %0, ptr noundef nonnull %2, i32 noundef 2)
  br label %35

33:                                               ; preds = %7
  tail call fastcc void @_blendop_blendif_channel_mask_view_toggle(ptr noundef %0, ptr noundef nonnull %2, i32 noundef 65538)
  br label %35

34:                                               ; preds = %7, %7
  tail call fastcc void @_blendop_blendif_channel_mask_view_toggle(ptr noundef %0, ptr noundef nonnull %2, i32 noundef 1)
  br label %35

35:                                               ; preds = %34, %33, %32, %25, %19
  tail call void @dt_iop_request_focus(ptr noundef nonnull %2) #18
  br label %36

36:                                               ; preds = %7, %35, %3
  %.0 = phi i32 [ 0, %3 ], [ 1, %35 ], [ 0, %7 ]
  ret i32 %.0
}